; Function Attrs: nounwind uwtable
define dso_local noundef ptr @create_dir_entry(ptr noundef %0, ptr noundef readonly captures(none) %1, i64 noundef %2) local_unnamed_addr #0 {
  %4 = icmp ugt i64 %2, -57
  br i1 %4, label %5, label %st_add.exit

5:                                                ; preds = %3
  tail call void (ptr, ...) @die(ptr noundef nonnull @.str.4, i64 noundef 56, i64 noundef %2) #10
  unreachable

st_add.exit:                                      ; preds = %3
  %6 = icmp eq i64 %2, -57
  br i1 %6, label %7, label %st_add.exit8

7:                                                ; preds = %st_add.exit
  tail call void (ptr, ...) @die(ptr noundef nonnull @.str.4, i64 noundef -1, i64 noundef 1) #10
  unreachable

st_add.exit8:                                     ; preds = %st_add.exit
  %8 = add nuw i64 %2, 57
  %9 = tail call ptr @xcalloc(i64 noundef 1, i64 noundef %8) #11
  %10 = getelementptr inbounds nuw i8, ptr %9, i64 56
  tail call void @llvm.memcpy.p0.p0.i64(ptr nonnull align 8 %10, ptr align 1 %1, i64 %2, i1 false)
  %11 = getelementptr inbounds nuw i8, ptr %9, i64 24
  store ptr %0, ptr %11, align 8, !tbaa !17
  store i8 48, ptr %9, align 8, !tbaa !17
  ret ptr %9
}